target datalayout = "e-m:e-p270:32:32-p271:32:32-p272:64:64-i64:64-i128:128-f80:128-n8:16:32:64-S128"
target triple = "x86_64-pc-linux-gnu"

%struct.darktable_t = type { %struct.dt_codepath_t, i32, i32, ptr, ptr, ptr, ptr, ptr, ptr, ptr, ptr, ptr, ptr, ptr, ptr, ptr, ptr, ptr, ptr, ptr, ptr, ptr, ptr, ptr, ptr, ptr, ptr, ptr, ptr, ptr, [64 x %struct.dt_pthread_mutex_t], %struct.dt_pthread_mutex_t, %struct.dt_pthread_mutex_t, %struct.dt_pthread_mutex_t, %struct.dt_pthread_mutex_t, %struct.dt_pthread_mutex_t, ptr, ptr, ptr, ptr, ptr, ptr, ptr, ptr, ptr, ptr, ptr, ptr, ptr, %struct.dt_lua_state_t, ptr, double, ptr, i32, [47 x i32], i32, i32, ptr, ptr, %struct.dt_sys_resources_t, %struct.dt_backthumb_t, %struct.dt_gimp_t }
%struct.dt_codepath_t = type { i8, [3 x i8] }
%struct.dt_pthread_mutex_t = type { %union.pthread_mutex_t }
%union.pthread_mutex_t = type { %struct.__pthread_mutex_s }
%struct.__pthread_mutex_s = type { i32, i32, i32, i32, i32, i16, i16, %struct.__pthread_internal_list }
%struct.__pthread_internal_list = type { ptr, ptr }
%struct.dt_lua_state_t = type { i32 }
%struct.dt_sys_resources_t = type { i64, i64, ptr, ptr, i32 }
%struct.dt_backthumb_t = type { double, double, i32, i32, i32, i32 }
%struct.dt_gimp_t = type { i32, ptr, ptr, i32, i32 }
%struct.dt_import_metadata_t = type { ptr, ptr, ptr, ptr, ptr }
%struct._GtkTreeIter = type { i32, ptr, ptr, ptr }

@darktable = external global %struct.darktable_t, align 8
@.str.18 = private unnamed_addr constant [123 x i8] c"generated/home/dtcxzyw/WorkSpace/Projects/compilers/llvm-opt-benchmark/bench/darktable/darktable/src/gui/import_metadata.c\00", align 1
@.str.25 = private unnamed_addr constant [41 x i8] c"[sql] %s:%d, function %s(): prepare \22%s\22\00", align 1
@__FUNCTION__._import_metadata_presets_update = private unnamed_addr constant [32 x i8] c"_import_metadata_presets_update\00", align 1
@.str.26 = private unnamed_addr constant [110 x i8] c"SELECT name, op_params FROM data.presets WHERE operation = 'metadata' ORDER BY writeprotect DESC, LOWER(name)\00", align 1
@stderr = external global ptr, align 8
@.str.27 = private unnamed_addr constant [53 x i8] c"sqlite3 error: %s:%d, function %s(), query \22%s\22: %s\0A\00", align 1

; Function Attrs: nounwind uwtable
define internal void @_import_metadata_presets_update(ptr noundef %0) #0 {
  %2 = alloca ptr, align 8
  %3 = alloca %struct._GtkTreeIter, align 8
  %4 = alloca ptr, align 8
  %5 = alloca i32, align 4
  %6 = alloca ptr, align 8
  %7 = alloca i32, align 4
  %8 = alloca ptr, align 8
  %9 = alloca [9 x ptr], align 16
  %10 = alloca [9 x i32], align 16
  %11 = alloca i32, align 4
  %12 = alloca i32, align 4
  %13 = alloca i32, align 4
  store ptr %0, ptr %2, align 8, !tbaa !6
  %14 = load ptr, ptr %2, align 8, !tbaa !6
  %15 = getelementptr inbounds nuw %struct.dt_import_metadata_t, ptr %14, i32 0, i32 3
  %16 = load ptr, ptr %15, align 8, !tbaa !63
  call void @gtk_list_store_clear(ptr noundef %16)
  call void @llvm.lifetime.start.p0(i64 32, ptr %3) #7
  call void @llvm.lifetime.start.p0(i64 8, ptr %4) #7
  br label %17

17:                                               ; preds = %1
  br label %18

18:                                               ; preds = %17
  %19 = load i32, ptr getelementptr inbounds nuw (%struct.darktable_t, ptr @darktable, i32 0, i32 2), align 8, !tbaa !68
  %20 = and i32 256, %19
  %21 = icmp ne i32 %20, 0
  br i1 %21, label %22, label %28

22:                                               ; preds = %18
  %23 = load i32, ptr getelementptr inbounds nuw (%struct.darktable_t, ptr @darktable, i32 0, i32 2), align 8, !tbaa !68
  %24 = xor i32 %23, -1
  %25 = and i32 0, %24
  %26 = icmp ne i32 %25, 0
  br i1 %26, label %28, label %27

27:                                               ; preds = %22
  call void (ptr, ...) @dt_print_ext(ptr noundef @.str.25, ptr noundef @.str.18, i32 noundef 237, ptr noundef @__FUNCTION__._import_metadata_presets_update, ptr noundef @.str.26)
  br label %28

28:                                               ; preds = %27, %22, %18
  br label %29

29:                                               ; preds = %28
  br label %30

30:                                               ; preds = %29
  call void @llvm.lifetime.start.p0(i64 4, ptr %5) #7
  %31 = load ptr, ptr getelementptr inbounds nuw (%struct.darktable_t, ptr @darktable, i32 0, i32 18), align 8, !tbaa !70
  %32 = call ptr @dt_database_get(ptr noundef %31)
  %33 = call i32 @sqlite3_prepare_v2(ptr noundef %32, ptr noundef @.str.26, i32 noundef -1, ptr noundef %4, ptr noundef null)
  store i32 %33, ptr %5, align 4, !tbaa !61
  %34 = load i32, ptr %5, align 4, !tbaa !61
  %35 = icmp ne i32 %34, 0
  br i1 %35, label %36, label %42

36:                                               ; preds = %30
  %37 = load ptr, ptr @stderr, align 8, !tbaa !71
  %38 = load ptr, ptr getelementptr inbounds nuw (%struct.darktable_t, ptr @darktable, i32 0, i32 18), align 8, !tbaa !70
  %39 = call ptr @dt_database_get(ptr noundef %38)
  %40 = call ptr @sqlite3_errmsg(ptr noundef %39)
  %41 = call i32 (ptr, ptr, ...) @fprintf(ptr noundef %37, ptr noundef @.str.27, ptr noundef @.str.18, i32 noundef 237, ptr noundef @__FUNCTION__._import_metadata_presets_update, ptr noundef @.str.26, ptr noundef %40) #7
  br label %42

42:                                               ; preds = %36, %30
  call void @llvm.lifetime.end.p0(i64 4, ptr %5) #7
  br label %43

43:                                               ; preds = %42
  br label %44

44:                                               ; preds = %43
  br label %45

45:                                               ; preds = %131, %44
  %46 = load ptr, ptr %4, align 8, !tbaa !73
  %47 = call i32 @sqlite3_step(ptr noundef %46)
  %48 = icmp eq i32 %47, 100
  br i1 %48, label %49, label %132

49:                                               ; preds = %45
  call void @llvm.lifetime.start.p0(i64 8, ptr %6) #7
  %50 = load ptr, ptr %4, align 8, !tbaa !73
  %51 = call ptr @sqlite3_column_blob(ptr noundef %50, i32 noundef 1)
  store ptr %51, ptr %6, align 8, !tbaa !75
  call void @llvm.lifetime.start.p0(i64 4, ptr %7) #7
  %52 = load ptr, ptr %4, align 8, !tbaa !73
  %53 = call i32 @sqlite3_column_bytes(ptr noundef %52, i32 noundef 1)
  store i32 %53, ptr %7, align 4, !tbaa !61
  call void @llvm.lifetime.start.p0(i64 8, ptr %8) #7
  %54 = load ptr, ptr %6, align 8, !tbaa !75
  store ptr %54, ptr %8, align 8, !tbaa !65
  call void @llvm.lifetime.start.p0(i64 72, ptr %9) #7
  call void @llvm.lifetime.start.p0(i64 36, ptr %10) #7
  call void @llvm.lifetime.start.p0(i64 4, ptr %11) #7
  store i32 0, ptr %11, align 4, !tbaa !61
  call void @llvm.lifetime.start.p0(i64 4, ptr %12) #7
  store i32 0, ptr %12, align 4, !tbaa !61
  br label %55

55:                                               ; preds = %92, %49
  %56 = load i32, ptr %12, align 4, !tbaa !61
  %57 = icmp ult i32 %56, 9
  br i1 %57, label %59, label %58

58:                                               ; preds = %55
  call void @llvm.lifetime.end.p0(i64 4, ptr %12) #7
  br label %95

59:                                               ; preds = %55
  %60 = load i32, ptr %12, align 4, !tbaa !61
  %61 = call i32 @dt_metadata_get_type_by_display_order(i32 noundef %60)
  %62 = icmp eq i32 %61, 2
  br i1 %62, label %63, label %64

63:                                               ; preds = %59
  br label %92

64:                                               ; preds = %59
  %65 = load ptr, ptr %8, align 8, !tbaa !65
  %66 = load i32, ptr %12, align 4, !tbaa !61
  %67 = zext i32 %66 to i64
  %68 = getelementptr inbounds nuw [9 x ptr], ptr %9, i64 0, i64 %67
  store ptr %65, ptr %68, align 8, !tbaa !65
  %69 = load i32, ptr %12, align 4, !tbaa !61
  %70 = zext i32 %69 to i64
  %71 = getelementptr inbounds nuw [9 x ptr], ptr %9, i64 0, i64 %70
  %72 = load ptr, ptr %71, align 8, !tbaa !65
  %73 = call i64 @strlen(ptr noundef %72) #9
  %74 = add i64 %73, 1
  %75 = trunc i64 %74 to i32
  %76 = load i32, ptr %12, align 4, !tbaa !61
  %77 = zext i32 %76 to i64
  %78 = getelementptr inbounds nuw [9 x i32], ptr %10, i64 0, i64 %77
  store i32 %75, ptr %78, align 4, !tbaa !61
  %79 = load i32, ptr %12, align 4, !tbaa !61
  %80 = zext i32 %79 to i64
  %81 = getelementptr inbounds nuw [9 x i32], ptr %10, i64 0, i64 %80
  %82 = load i32, ptr %81, align 4, !tbaa !61
  %83 = load ptr, ptr %8, align 8, !tbaa !65
  %84 = zext i32 %82 to i64
  %85 = getelementptr inbounds nuw i8, ptr %83, i64 %84
  store ptr %85, ptr %8, align 8, !tbaa !65
  %86 = load i32, ptr %12, align 4, !tbaa !61
  %87 = zext i32 %86 to i64
  %88 = getelementptr inbounds nuw [9 x i32], ptr %10, i64 0, i64 %87
  %89 = load i32, ptr %88, align 4, !tbaa !61
  %90 = load i32, ptr %11, align 4, !tbaa !61
  %91 = add i32 %90, %89
  store i32 %91, ptr %11, align 4, !tbaa !61
  br label %92

92:                                               ; preds = %64, %63
  %93 = load i32, ptr %12, align 4, !tbaa !61
  %94 = add i32 %93, 1
  store i32 %94, ptr %12, align 4, !tbaa !61
  br label %55

95:                                               ; preds = %58
  %96 = load i32, ptr %7, align 4, !tbaa !61
  %97 = load i32, ptr %11, align 4, !tbaa !61
  %98 = icmp eq i32 %96, %97
  br i1 %98, label %99, label %131

99:                                               ; preds = %95
  %100 = load ptr, ptr %2, align 8, !tbaa !6
  %101 = getelementptr inbounds nuw %struct.dt_import_metadata_t, ptr %100, i32 0, i32 3
  %102 = load ptr, ptr %101, align 8, !tbaa !63
  call void @gtk_list_store_append(ptr noundef %102, ptr noundef %3)
  %103 = load ptr, ptr %2, align 8, !tbaa !6
  %104 = getelementptr inbounds nuw %struct.dt_import_metadata_t, ptr %103, i32 0, i32 3
  %105 = load ptr, ptr %104, align 8, !tbaa !63
  %106 = load ptr, ptr %4, align 8, !tbaa !73
  %107 = call ptr @sqlite3_column_text(ptr noundef %106, i32 noundef 0)
  call void (ptr, ptr, ...) @gtk_list_store_set(ptr noundef %105, ptr noundef %3, i32 noundef 0, ptr noundef %107, i32 noundef -1)
  call void @llvm.lifetime.start.p0(i64 4, ptr %13) #7
  store i32 0, ptr %13, align 4, !tbaa !61
  br label %108

108:                                              ; preds = %127, %99
  %109 = load i32, ptr %13, align 4, !tbaa !61
  %110 = icmp ult i32 %109, 9
  br i1 %110, label %112, label %111

111:                                              ; preds = %108
  call void @llvm.lifetime.end.p0(i64 4, ptr %13) #7
  br label %130

112:                                              ; preds = %108
  %113 = load i32, ptr %13, align 4, !tbaa !61
  %114 = call i32 @dt_metadata_get_type_by_display_order(i32 noundef %113)
  %115 = icmp eq i32 %114, 2
  br i1 %115, label %116, label %117

116:                                              ; preds = %112
  br label %127

117:                                              ; preds = %112
  %118 = load ptr, ptr %2, align 8, !tbaa !6
  %119 = getelementptr inbounds nuw %struct.dt_import_metadata_t, ptr %118, i32 0, i32 3
  %120 = load ptr, ptr %119, align 8, !tbaa !63
  %121 = load i32, ptr %13, align 4, !tbaa !61
  %122 = add i32 %121, 1
  %123 = load i32, ptr %13, align 4, !tbaa !61
  %124 = zext i32 %123 to i64
  %125 = getelementptr inbounds nuw [9 x ptr], ptr %9, i64 0, i64 %124
  %126 = load ptr, ptr %125, align 8, !tbaa !65
  call void (ptr, ptr, ...) @gtk_list_store_set(ptr noundef %120, ptr noundef %3, i32 noundef %122, ptr noundef %126, i32 noundef -1)
  br label %127

127:                                              ; preds = %117, %116
  %128 = load i32, ptr %13, align 4, !tbaa !61
  %129 = add i32 %128, 1
  store i32 %129, ptr %13, align 4, !tbaa !61
  br label %108

130:                                              ; preds = %111
  br label %131

131:                                              ; preds = %130, %95
  call void @llvm.lifetime.end.p0(i64 4, ptr %11) #7
  call void @llvm.lifetime.end.p0(i64 36, ptr %10) #7
  call void @llvm.lifetime.end.p0(i64 72, ptr %9) #7
  call void @llvm.lifetime.end.p0(i64 8, ptr %8) #7
  call void @llvm.lifetime.end.p0(i64 4, ptr %7) #7
  call void @llvm.lifetime.end.p0(i64 8, ptr %6) #7
  br label %45

132:                                              ; preds = %45
  %133 = load ptr, ptr %4, align 8, !tbaa !73
  %134 = call i32 @sqlite3_finalize(ptr noundef %133)
  call void @llvm.lifetime.end.p0(i64 8, ptr %4) #7
  call void @llvm.lifetime.end.p0(i64 32, ptr %3) #7
  ret void
}