; Function Attrs: nounwind uwtable
define internal fastcc void @_import_metadata_presets_update(ptr noundef readonly captures(none) %0) unnamed_addr #0 {
  %2 = alloca %struct._GtkTreeIter, align 8
  %3 = alloca ptr, align 8
  %4 = alloca [9 x ptr], align 16
  %5 = getelementptr inbounds nuw i8, ptr %0, i64 24
  %6 = load ptr, ptr %5, align 8, !tbaa !58
  tail call void @gtk_list_store_clear(ptr noundef %6) #10
  call void @llvm.lifetime.start.p0(i64 32, ptr nonnull %2) #10
  call void @llvm.lifetime.start.p0(i64 8, ptr nonnull %3) #10
  %7 = load i32, ptr getelementptr inbounds nuw (i8, ptr @darktable, i64 8), align 8, !tbaa !63
  %8 = and i32 %7, 256
  %.not = icmp eq i32 %8, 0
  br i1 %.not, label %10, label %9

9:                                                ; preds = %1
  tail call void (ptr, ...) @dt_print_ext(ptr noundef nonnull @.str.25, ptr noundef nonnull @.str.18, i32 noundef 237, ptr noundef nonnull @__FUNCTION__._import_metadata_presets_update, ptr noundef nonnull @.str.26) #10
  br label %10

10:                                               ; preds = %9, %1
  %11 = load ptr, ptr getelementptr inbounds nuw (i8, ptr @darktable, i64 136), align 8, !tbaa !65
  %12 = tail call ptr @dt_database_get(ptr noundef %11) #10
  %13 = call i32 @sqlite3_prepare_v2(ptr noundef %12, ptr noundef nonnull @.str.26, i32 noundef -1, ptr noundef nonnull %3, ptr noundef null) #10
  %.not27 = icmp eq i32 %13, 0
  br i1 %.not27, label %20, label %14

14:                                               ; preds = %10
  %15 = load ptr, ptr @stderr, align 8, !tbaa !66
  %16 = load ptr, ptr getelementptr inbounds nuw (i8, ptr @darktable, i64 136), align 8, !tbaa !65
  %17 = call ptr @dt_database_get(ptr noundef %16) #10
  %18 = call ptr @sqlite3_errmsg(ptr noundef %17) #10
  %19 = call i32 (ptr, ptr, ...) @fprintf(ptr noundef %15, ptr noundef nonnull @.str.27, ptr noundef nonnull @.str.18, i32 noundef 237, ptr noundef nonnull @__FUNCTION__._import_metadata_presets_update, ptr noundef nonnull @.str.26, ptr noundef %18) #12
  br label %20

20:                                               ; preds = %14, %10
  %21 = load ptr, ptr %3, align 8, !tbaa !68
  %22 = call i32 @sqlite3_step(ptr noundef %21) #10
  %23 = icmp eq i32 %22, 100
  br i1 %23, label %.lr.ph, label %._crit_edge

.lr.ph:                                           ; preds = %20, %.loopexit
  %24 = load ptr, ptr %3, align 8, !tbaa !68
  %25 = call ptr @sqlite3_column_blob(ptr noundef %24, i32 noundef 1) #10
  %26 = load ptr, ptr %3, align 8, !tbaa !68
  %27 = call i32 @sqlite3_column_bytes(ptr noundef %26, i32 noundef 1) #10
  call void @llvm.lifetime.start.p0(i64 72, ptr nonnull %4) #10
  br label %30

28:                                               ; preds = %42
  %29 = icmp eq i32 %27, %.1
  br i1 %29, label %43, label %.loopexit

30:                                               ; preds = %.lr.ph, %42
  %indvars.iv = phi i64 [ 0, %.lr.ph ], [ %indvars.iv.next, %42 ]
  %.02429 = phi i32 [ 0, %.lr.ph ], [ %.1, %42 ]
  %.02528 = phi ptr [ %25, %.lr.ph ], [ %.126, %42 ]
  %31 = trunc nuw nsw i64 %indvars.iv to i32
  %32 = call i32 @dt_metadata_get_type_by_display_order(i32 noundef %31) #10
  %33 = icmp eq i32 %32, 2
  br i1 %33, label %42, label %34

34:                                               ; preds = %30
  %35 = getelementptr inbounds nuw [9 x ptr], ptr %4, i64 0, i64 %indvars.iv
  store ptr %.02528, ptr %35, align 8, !tbaa !70
  %36 = call i64 @strlen(ptr noundef nonnull dereferenceable(1) %.02528) #13
  %37 = trunc i64 %36 to i32
  %38 = add i32 %37, 1
  %39 = zext i32 %38 to i64
  %40 = getelementptr inbounds nuw i8, ptr %.02528, i64 %39
  %41 = add i32 %38, %.02429
  br label %42

42:                                               ; preds = %30, %34
  %.126 = phi ptr [ %.02528, %30 ], [ %40, %34 ]
  %.1 = phi i32 [ %.02429, %30 ], [ %41, %34 ]
  %indvars.iv.next = add nuw nsw i64 %indvars.iv, 1
  %exitcond.not = icmp eq i64 %indvars.iv.next, 9
  br i1 %exitcond.not, label %28, label %30

43:                                               ; preds = %28
  %44 = load ptr, ptr %5, align 8, !tbaa !58
  call void @gtk_list_store_append(ptr noundef %44, ptr noundef nonnull %2) #10
  %45 = load ptr, ptr %5, align 8, !tbaa !58
  %46 = load ptr, ptr %3, align 8, !tbaa !68
  %47 = call ptr @sqlite3_column_text(ptr noundef %46, i32 noundef 0) #10
  call void (ptr, ptr, ...) @gtk_list_store_set(ptr noundef %45, ptr noundef nonnull %2, i32 noundef 0, ptr noundef %47, i32 noundef -1) #10
  br label %48

48:                                               ; preds = %43, %58
  %indvars.iv33 = phi i64 [ 0, %43 ], [ %indvars.iv.next34.pre-phi, %58 ]
  %49 = trunc nuw nsw i64 %indvars.iv33 to i32
  %50 = call i32 @dt_metadata_get_type_by_display_order(i32 noundef %49) #10
  %51 = icmp eq i32 %50, 2
  br i1 %51, label %._crit_edge37, label %52

._crit_edge37:                                    ; preds = %48
  %.pre = add nuw nsw i64 %indvars.iv33, 1
  br label %58

52:                                               ; preds = %48
  %53 = load ptr, ptr %5, align 8, !tbaa !58
  %54 = add nuw nsw i64 %indvars.iv33, 1
  %55 = getelementptr inbounds nuw [9 x ptr], ptr %4, i64 0, i64 %indvars.iv33
  %56 = load ptr, ptr %55, align 8, !tbaa !70
  %57 = trunc nuw nsw i64 %54 to i32
  call void (ptr, ptr, ...) @gtk_list_store_set(ptr noundef %53, ptr noundef nonnull %2, i32 noundef %57, ptr noundef %56, i32 noundef -1) #10
  br label %58

58:                                               ; preds = %._crit_edge37, %52
  %indvars.iv.next34.pre-phi = phi i64 [ %.pre, %._crit_edge37 ], [ %54, %52 ]
  %exitcond36.not = icmp eq i64 %indvars.iv.next34.pre-phi, 9
  br i1 %exitcond36.not, label %.loopexit, label %48

.loopexit:                                        ; preds = %58, %28
  call void @llvm.lifetime.end.p0(i64 72, ptr nonnull %4) #10
  %59 = load ptr, ptr %3, align 8, !tbaa !68
  %60 = call i32 @sqlite3_step(ptr noundef %59) #10
  %61 = icmp eq i32 %60, 100
  br i1 %61, label %.lr.ph, label %._crit_edge

._crit_edge:                                      ; preds = %.loopexit, %20
  %62 = load ptr, ptr %3, align 8, !tbaa !68
  %63 = call i32 @sqlite3_finalize(ptr noundef %62) #10
  call void @llvm.lifetime.end.p0(i64 8, ptr nonnull %3) #10
  call void @llvm.lifetime.end.p0(i64 32, ptr nonnull %2) #10
  ret void
}